target datalayout = "e-m:e-p270:32:32-p271:32:32-p272:64:64-i64:64-i128:128-f80:128-n8:16:32:64-S128"
target triple = "x86_64-pc-linux-gnu"

%struct.pointf_s = type { double, double }
%struct.textspan_t = type { ptr, ptr, ptr, ptr, double, double, %struct.pointf_s, i8 }
%struct.textfont_t = type { ptr, ptr, ptr, double, i32 }

@Verbose = external global i8, align 1
@stderr = external global ptr, align 8
@.str = private unnamed_addr constant [32 x i8] c"fontname: \22%s\22 resolved to: %s\0A\00", align 1
@.str.1 = private unnamed_addr constant [34 x i8] c"fontname: unable to resolve \22%s\22\0A\00", align 1
@translate_postscript_fontname.key = internal global ptr null, align 8
@translate_postscript_fontname.result = internal global ptr null, align 8
@.str.2 = private unnamed_addr constant [49 x i8] c"out of memory when trying to allocate %zu bytes\0A\00", align 1
@.str.59 = private unnamed_addr constant [22 x i8] c"[internal hard-coded]\00", align 1

; Function Attrs: inlinehint nounwind uwtable
define available_externally ptr @bsearch(ptr noundef nonnull %0, ptr noundef nonnull %1, i64 noundef %2, i64 noundef %3, ptr noundef nonnull %4) #6 {
  %6 = alloca ptr, align 8
  %7 = alloca ptr, align 8
  %8 = alloca ptr, align 8
  %9 = alloca i64, align 8
  %10 = alloca i64, align 8
  %11 = alloca ptr, align 8
  %12 = alloca i64, align 8
  %13 = alloca i64, align 8
  %14 = alloca i64, align 8
  %15 = alloca ptr, align 8
  %16 = alloca i32, align 4
  %17 = alloca i32, align 4
  store ptr %0, ptr %7, align 8, !tbaa !8
  store ptr %1, ptr %8, align 8, !tbaa !8
  store i64 %2, ptr %9, align 8, !tbaa !67
  store i64 %3, ptr %10, align 8, !tbaa !67
  store ptr %4, ptr %11, align 8, !tbaa !8
  call void @llvm.lifetime.start.p0(i64 8, ptr %12) #10
  call void @llvm.lifetime.start.p0(i64 8, ptr %13) #10
  call void @llvm.lifetime.start.p0(i64 8, ptr %14) #10
  call void @llvm.lifetime.start.p0(i64 8, ptr %15) #10
  call void @llvm.lifetime.start.p0(i64 4, ptr %16) #10
  store i64 0, ptr %12, align 8, !tbaa !67
  %18 = load i64, ptr %9, align 8, !tbaa !67
  store i64 %18, ptr %13, align 8, !tbaa !67
  br label %19

19:                                               ; preds = %50, %5
  %20 = load i64, ptr %12, align 8, !tbaa !67
  %21 = load i64, ptr %13, align 8, !tbaa !67
  %22 = icmp ult i64 %20, %21
  br i1 %22, label %23, label %51

23:                                               ; preds = %19
  %24 = load i64, ptr %12, align 8, !tbaa !67
  %25 = load i64, ptr %13, align 8, !tbaa !67
  %26 = add i64 %24, %25
  %27 = udiv i64 %26, 2
  store i64 %27, ptr %14, align 8, !tbaa !67
  %28 = load ptr, ptr %8, align 8, !tbaa !8
  %29 = load i64, ptr %14, align 8, !tbaa !67
  %30 = load i64, ptr %10, align 8, !tbaa !67
  %31 = mul i64 %29, %30
  %32 = getelementptr inbounds nuw i8, ptr %28, i64 %31
  store ptr %32, ptr %15, align 8, !tbaa !8
  %33 = load ptr, ptr %11, align 8, !tbaa !8
  %34 = load ptr, ptr %7, align 8, !tbaa !8
  %35 = load ptr, ptr %15, align 8, !tbaa !8
  %36 = call i32 %33(ptr noundef %34, ptr noundef %35)
  store i32 %36, ptr %16, align 4, !tbaa !28
  %37 = load i32, ptr %16, align 4, !tbaa !28
  %38 = icmp slt i32 %37, 0
  br i1 %38, label %39, label %41

39:                                               ; preds = %23
  %40 = load i64, ptr %14, align 8, !tbaa !67
  store i64 %40, ptr %13, align 8, !tbaa !67
  br label %50

41:                                               ; preds = %23
  %42 = load i32, ptr %16, align 4, !tbaa !28
  %43 = icmp sgt i32 %42, 0
  br i1 %43, label %44, label %47

44:                                               ; preds = %41
  %45 = load i64, ptr %14, align 8, !tbaa !67
  %46 = add i64 %45, 1
  store i64 %46, ptr %12, align 8, !tbaa !67
  br label %49

47:                                               ; preds = %41
  %48 = load ptr, ptr %15, align 8, !tbaa !8
  store ptr %48, ptr %6, align 8
  store i32 1, ptr %17, align 4
  br label %52

49:                                               ; preds = %44
  br label %50

50:                                               ; preds = %49, %39
  br label %19, !llvm.loop !69

51:                                               ; preds = %19
  store ptr null, ptr %6, align 8
  store i32 1, ptr %17, align 4
  br label %52

52:                                               ; preds = %51, %47
  call void @llvm.lifetime.end.p0(i64 4, ptr %16) #10
  call void @llvm.lifetime.end.p0(i64 8, ptr %15) #10
  call void @llvm.lifetime.end.p0(i64 8, ptr %14) #10
  call void @llvm.lifetime.end.p0(i64 8, ptr %13) #10
  call void @llvm.lifetime.end.p0(i64 8, ptr %12) #10
  %53 = load ptr, ptr %6, align 8
  ret ptr %53
}

; Function Attrs: inlinehint nounwind uwtable
define internal ptr @gv_strdup(ptr noundef %0) #6 {
  %2 = alloca ptr, align 8
  %3 = alloca ptr, align 8
  store ptr %0, ptr %2, align 8, !tbaa !11
  call void @llvm.lifetime.start.p0(i64 8, ptr %3) #10
  %4 = load ptr, ptr %2, align 8, !tbaa !11
  %5 = call noalias ptr @strdup(ptr noundef %4) #10
  store ptr %5, ptr %3, align 8, !tbaa !11
  %6 = load ptr, ptr %3, align 8, !tbaa !11
  %7 = icmp eq ptr %6, null
  br i1 %7, label %8, label %14

8:                                                ; preds = %1
  %9 = load ptr, ptr @stderr, align 8, !tbaa !23
  %10 = load ptr, ptr %2, align 8, !tbaa !11
  %11 = call i64 @strlen(ptr noundef %10) #11
  %12 = add i64 %11, 1
  %13 = call i32 (ptr, ptr, ...) @fprintf(ptr noundef %9, ptr noundef @.str.2, i64 noundef %12) #10
  call void @graphviz_exit(i32 noundef 1) #12
  unreachable

14:                                               ; preds = %1
  %15 = load ptr, ptr %3, align 8, !tbaa !11
  call void @llvm.lifetime.end.p0(i64 8, ptr %3) #10
  ret ptr %15
}

; Function Attrs: nounwind uwtable
define internal void @estimate_textspan_size(ptr noundef %0, ptr noundef %1) #0 {
  %3 = alloca ptr, align 8
  %4 = alloca ptr, align 8
  %5 = alloca double, align 8
  %6 = alloca i32, align 4
  %7 = alloca i8, align 1
  %8 = alloca i8, align 1
  store ptr %0, ptr %3, align 8, !tbaa !8
  store ptr %1, ptr %4, align 8, !tbaa !9
  call void @llvm.lifetime.start.p0(i64 8, ptr %5) #10
  call void @llvm.lifetime.start.p0(i64 4, ptr %6) #10
  %9 = load ptr, ptr %3, align 8, !tbaa !8
  %10 = getelementptr inbounds nuw %struct.textspan_t, ptr %9, i32 0, i32 1
  %11 = load ptr, ptr %10, align 8, !tbaa !13
  %12 = getelementptr inbounds nuw %struct.textfont_t, ptr %11, i32 0, i32 4
  %13 = load i32, ptr %12, align 8
  %14 = and i32 %13, 127
  store i32 %14, ptr %6, align 4, !tbaa !28
  call void @llvm.lifetime.start.p0(i64 1, ptr %7) #10
  %15 = load i32, ptr %6, align 4, !tbaa !28
  %16 = and i32 %15, 1
  %17 = icmp ne i32 %16, 0
  %18 = zext i1 %17 to i8
  store i8 %18, ptr %7, align 1, !tbaa !29
  call void @llvm.lifetime.start.p0(i64 1, ptr %8) #10
  %19 = load i32, ptr %6, align 4, !tbaa !28
  %20 = and i32 %19, 2
  %21 = icmp ne i32 %20, 0
  %22 = zext i1 %21 to i8
  store i8 %22, ptr %8, align 1, !tbaa !29
  %23 = load ptr, ptr %3, align 8, !tbaa !8
  %24 = getelementptr inbounds nuw %struct.textspan_t, ptr %23, i32 0, i32 1
  %25 = load ptr, ptr %24, align 8, !tbaa !13
  %26 = getelementptr inbounds nuw %struct.textfont_t, ptr %25, i32 0, i32 3
  %27 = load double, ptr %26, align 8, !tbaa !31
  store double %27, ptr %5, align 8, !tbaa !26
  %28 = load ptr, ptr %3, align 8, !tbaa !8
  %29 = getelementptr inbounds nuw %struct.textspan_t, ptr %28, i32 0, i32 6
  %30 = getelementptr inbounds nuw %struct.pointf_s, ptr %29, i32 0, i32 0
  store double 0.000000e+00, ptr %30, align 8, !tbaa !32
  %31 = load double, ptr %5, align 8, !tbaa !26
  %32 = fmul double %31, 1.200000e+00
  %33 = load ptr, ptr %3, align 8, !tbaa !8
  %34 = getelementptr inbounds nuw %struct.textspan_t, ptr %33, i32 0, i32 6
  %35 = getelementptr inbounds nuw %struct.pointf_s, ptr %34, i32 0, i32 1
  store double %32, ptr %35, align 8, !tbaa !33
  %36 = load ptr, ptr %3, align 8, !tbaa !8
  %37 = getelementptr inbounds nuw %struct.textspan_t, ptr %36, i32 0, i32 4
  store double 0.000000e+00, ptr %37, align 8, !tbaa !34
  %38 = load double, ptr %5, align 8, !tbaa !26
  %39 = fmul double 1.000000e-01, %38
  %40 = load ptr, ptr %3, align 8, !tbaa !8
  %41 = getelementptr inbounds nuw %struct.textspan_t, ptr %40, i32 0, i32 5
  store double %39, ptr %41, align 8, !tbaa !35
  %42 = load ptr, ptr %3, align 8, !tbaa !8
  %43 = getelementptr inbounds nuw %struct.textspan_t, ptr %42, i32 0, i32 2
  store ptr null, ptr %43, align 8, !tbaa !36
  %44 = load ptr, ptr %3, align 8, !tbaa !8
  %45 = getelementptr inbounds nuw %struct.textspan_t, ptr %44, i32 0, i32 3
  store ptr null, ptr %45, align 8, !tbaa !37
  %46 = load double, ptr %5, align 8, !tbaa !26
  %47 = load ptr, ptr %3, align 8, !tbaa !8
  %48 = getelementptr inbounds nuw %struct.textspan_t, ptr %47, i32 0, i32 1
  %49 = load ptr, ptr %48, align 8, !tbaa !13
  %50 = getelementptr inbounds nuw %struct.textfont_t, ptr %49, i32 0, i32 0
  %51 = load ptr, ptr %50, align 8, !tbaa !21
  %52 = load ptr, ptr %3, align 8, !tbaa !8
  %53 = getelementptr inbounds nuw %struct.textspan_t, ptr %52, i32 0, i32 0
  %54 = load ptr, ptr %53, align 8, !tbaa !38
  %55 = load i8, ptr %7, align 1, !tbaa !29, !range !39, !noundef !40
  %56 = trunc i8 %55 to i1
  %57 = load i8, ptr %8, align 1, !tbaa !29, !range !39, !noundef !40
  %58 = trunc i8 %57 to i1
  %59 = call double @estimate_text_width_1pt(ptr noundef %51, ptr noundef %54, i1 noundef zeroext %56, i1 noundef zeroext %58)
  %60 = fmul double %46, %59
  %61 = load ptr, ptr %3, align 8, !tbaa !8
  %62 = getelementptr inbounds nuw %struct.textspan_t, ptr %61, i32 0, i32 6
  %63 = getelementptr inbounds nuw %struct.pointf_s, ptr %62, i32 0, i32 0
  store double %60, ptr %63, align 8, !tbaa !32
  %64 = load ptr, ptr %4, align 8, !tbaa !9
  %65 = icmp ne ptr %64, null
  br i1 %65, label %66, label %68

66:                                               ; preds = %2
  %67 = load ptr, ptr %4, align 8, !tbaa !9
  store ptr @.str.59, ptr %67, align 8, !tbaa !11
  br label %68

68:                                               ; preds = %66, %2
  call void @llvm.lifetime.end.p0(i64 1, ptr %8) #10
  call void @llvm.lifetime.end.p0(i64 1, ptr %7) #10
  call void @llvm.lifetime.end.p0(i64 4, ptr %6) #10
  call void @llvm.lifetime.end.p0(i64 8, ptr %5) #10
  ret void
}

; Function Attrs: nounwind uwtable
define internal ptr @translate_postscript_fontname(ptr noundef %0) #0 {
  %2 = alloca ptr, align 8
  store ptr %0, ptr %2, align 8, !tbaa !11
  %3 = load ptr, ptr @translate_postscript_fontname.key, align 8, !tbaa !11
  %4 = icmp eq ptr %3, null
  br i1 %4, label %10, label %5

5:                                                ; preds = %1
  %6 = load ptr, ptr @translate_postscript_fontname.key, align 8, !tbaa !11
  %7 = load ptr, ptr %2, align 8, !tbaa !11
  %8 = call i32 @strcasecmp(ptr noundef %6, ptr noundef %7) #11
  %9 = icmp ne i32 %8, 0
  br i1 %9, label %10, label %16

10:                                               ; preds = %5, %1
  %11 = load ptr, ptr @translate_postscript_fontname.key, align 8, !tbaa !11
  call void @free(ptr noundef %11) #10
  %12 = load ptr, ptr %2, align 8, !tbaa !11
  %13 = call ptr @gv_strdup(ptr noundef %12)
  store ptr %13, ptr @translate_postscript_fontname.key, align 8, !tbaa !11
  %14 = load ptr, ptr @translate_postscript_fontname.key, align 8, !tbaa !11
  %15 = call ptr @bsearch(ptr noundef %14, ptr noundef @postscript_alias, i64 noundef 35, i64 noundef 72, ptr noundef @fontcmpf)
  store ptr %15, ptr @translate_postscript_fontname.result, align 8, !tbaa !27
  br label %16

16:                                               ; preds = %10, %5
  %17 = load ptr, ptr @translate_postscript_fontname.result, align 8, !tbaa !27
  ret ptr %17
}

; Function Attrs: nounwind uwtable
define { double, double } @textspan_size(ptr noundef %0, ptr noundef %1) #0 {
  %3 = alloca %struct.pointf_s, align 8
  %4 = alloca ptr, align 8
  %5 = alloca ptr, align 8
  %6 = alloca ptr, align 8
  %7 = alloca ptr, align 8
  %8 = alloca ptr, align 8
  store ptr %0, ptr %4, align 8, !tbaa !3
  store ptr %1, ptr %5, align 8, !tbaa !8
  call void @llvm.lifetime.start.p0(i64 8, ptr %6) #10
  store ptr null, ptr %6, align 8, !tbaa !9
  call void @llvm.lifetime.start.p0(i64 8, ptr %7) #10
  store ptr null, ptr %7, align 8, !tbaa !11
  call void @llvm.lifetime.start.p0(i64 8, ptr %8) #10
  %9 = load ptr, ptr %5, align 8, !tbaa !8
  %10 = getelementptr inbounds nuw %struct.textspan_t, ptr %9, i32 0, i32 1
  %11 = load ptr, ptr %10, align 8, !tbaa !13
  store ptr %11, ptr %8, align 8, !tbaa !8
  %12 = load ptr, ptr %8, align 8, !tbaa !8
  %13 = getelementptr inbounds nuw %struct.textfont_t, ptr %12, i32 0, i32 2
  %14 = load ptr, ptr %13, align 8, !tbaa !17
  %15 = icmp ne ptr %14, null
  br i1 %15, label %23, label %16

16:                                               ; preds = %2
  %17 = load ptr, ptr %8, align 8, !tbaa !8
  %18 = getelementptr inbounds nuw %struct.textfont_t, ptr %17, i32 0, i32 0
  %19 = load ptr, ptr %18, align 8, !tbaa !21
  %20 = call ptr @translate_postscript_fontname(ptr noundef %19)
  %21 = load ptr, ptr %8, align 8, !tbaa !8
  %22 = getelementptr inbounds nuw %struct.textfont_t, ptr %21, i32 0, i32 2
  store ptr %20, ptr %22, align 8, !tbaa !17
  br label %23

23:                                               ; preds = %16, %2
  %24 = load i8, ptr @Verbose, align 1, !tbaa !22
  %25 = zext i8 %24 to i32
  %26 = icmp ne i32 %25, 0
  br i1 %26, label %27, label %33

27:                                               ; preds = %23
  %28 = load ptr, ptr %8, align 8, !tbaa !8
  %29 = getelementptr inbounds nuw %struct.textfont_t, ptr %28, i32 0, i32 0
  %30 = load ptr, ptr %29, align 8, !tbaa !21
  %31 = call zeroext i1 @emit_once(ptr noundef %30)
  br i1 %31, label %32, label %33

32:                                               ; preds = %27
  store ptr %7, ptr %6, align 8, !tbaa !9
  br label %33

33:                                               ; preds = %32, %27, %23
  %34 = load ptr, ptr %4, align 8, !tbaa !3
  %35 = load ptr, ptr %5, align 8, !tbaa !8
  %36 = load ptr, ptr %6, align 8, !tbaa !9
  %37 = call zeroext i1 @gvtextlayout(ptr noundef %34, ptr noundef %35, ptr noundef %36)
  br i1 %37, label %41, label %38

38:                                               ; preds = %33
  %39 = load ptr, ptr %5, align 8, !tbaa !8
  %40 = load ptr, ptr %6, align 8, !tbaa !9
  call void @estimate_textspan_size(ptr noundef %39, ptr noundef %40)
  br label %41

41:                                               ; preds = %38, %33
  %42 = load ptr, ptr %6, align 8, !tbaa !9
  %43 = icmp ne ptr %42, null
  br i1 %43, label %44, label %61

44:                                               ; preds = %41
  %45 = load ptr, ptr %7, align 8, !tbaa !11
  %46 = icmp ne ptr %45, null
  br i1 %46, label %47, label %54

47:                                               ; preds = %44
  %48 = load ptr, ptr @stderr, align 8, !tbaa !23
  %49 = load ptr, ptr %8, align 8, !tbaa !8
  %50 = getelementptr inbounds nuw %struct.textfont_t, ptr %49, i32 0, i32 0
  %51 = load ptr, ptr %50, align 8, !tbaa !21
  %52 = load ptr, ptr %7, align 8, !tbaa !11
  %53 = call i32 (ptr, ptr, ...) @fprintf(ptr noundef %48, ptr noundef @.str, ptr noundef %51, ptr noundef %52) #10
  br label %60

54:                                               ; preds = %44
  %55 = load ptr, ptr @stderr, align 8, !tbaa !23
  %56 = load ptr, ptr %8, align 8, !tbaa !8
  %57 = getelementptr inbounds nuw %struct.textfont_t, ptr %56, i32 0, i32 0
  %58 = load ptr, ptr %57, align 8, !tbaa !21
  %59 = call i32 (ptr, ptr, ...) @fprintf(ptr noundef %55, ptr noundef @.str.1, ptr noundef %58) #10
  br label %60

60:                                               ; preds = %54, %47
  br label %61

61:                                               ; preds = %60, %41
  %62 = load ptr, ptr %5, align 8, !tbaa !8
  %63 = getelementptr inbounds nuw %struct.textspan_t, ptr %62, i32 0, i32 6
  call void @llvm.memcpy.p0.p0.i64(ptr align 8 %3, ptr align 8 %63, i64 16, i1 false), !tbaa.struct !25
  call void @llvm.lifetime.end.p0(i64 8, ptr %8) #10
  call void @llvm.lifetime.end.p0(i64 8, ptr %7) #10
  call void @llvm.lifetime.end.p0(i64 8, ptr %6) #10
  %64 = load { double, double }, ptr %3, align 8
  ret { double, double } %64
}