; Function Attrs: nounwind uwtable
define { double, double } @textspan_size(ptr noundef %0, ptr noundef %1) local_unnamed_addr #0 {
  %3 = alloca ptr, align 8
  call void @llvm.lifetime.start.p0(i64 8, ptr nonnull %3) #15
  store ptr null, ptr %3, align 8, !tbaa !3
  %4 = getelementptr inbounds nuw i8, ptr %1, i64 8
  %5 = load ptr, ptr %4, align 8, !tbaa !8
  %6 = getelementptr inbounds nuw i8, ptr %5, i64 16
  %7 = load ptr, ptr %6, align 8, !tbaa !12
  %.not = icmp eq ptr %7, null
  br i1 %.not, label %8, label %36

8:                                                ; preds = %2
  %9 = load ptr, ptr %5, align 8, !tbaa !16
  %10 = load ptr, ptr @translate_postscript_fontname.key, align 8, !tbaa !3
  %11 = icmp eq ptr %10, null
  br i1 %11, label %14, label %12

12:                                               ; preds = %8
  %13 = tail call i32 @strcasecmp(ptr noundef nonnull %10, ptr noundef readonly %9) #16
  %.not.i = icmp eq i32 %13, 0
  br i1 %.not.i, label %._crit_edge.i, label %14

._crit_edge.i:                                    ; preds = %12
  %.pre.i = load ptr, ptr @translate_postscript_fontname.result, align 8, !tbaa !17
  br label %translate_postscript_fontname.exit

14:                                               ; preds = %12, %8
  tail call void @free(ptr noundef %10) #15
  %15 = tail call noalias ptr @strdup(ptr noundef readonly %9) #15
  %16 = icmp eq ptr %15, null
  br i1 %16, label %17, label %gv_strdup.exit.i

17:                                               ; preds = %14
  %18 = load ptr, ptr @stderr, align 8, !tbaa !18
  %19 = tail call i64 @strlen(ptr noundef nonnull readonly dereferenceable(1) %9) #16
  %20 = add i64 %19, 1
  %21 = tail call i32 (ptr, ptr, ...) @fprintf(ptr noundef %18, ptr noundef nonnull @.str.2, i64 noundef %20) #17
  tail call fastcc void @graphviz_exit() #18
  unreachable

gv_strdup.exit.i:                                 ; preds = %14
  store ptr %15, ptr @translate_postscript_fontname.key, align 8, !tbaa !3
  br label %.lr.ph.i.i

.lr.ph.i.i:                                       ; preds = %32, %gv_strdup.exit.i
  %.01621.i.i = phi i64 [ %.1.i.i, %32 ], [ 0, %gv_strdup.exit.i ]
  %.01720.i.i = phi i64 [ %.118.i.i, %32 ], [ 35, %gv_strdup.exit.i ]
  %22 = add i64 %.01720.i.i, %.01621.i.i
  %23 = lshr i64 %22, 1
  %24 = mul i64 %23, 72
  %25 = getelementptr inbounds nuw i8, ptr @postscript_alias, i64 %24
  %26 = load ptr, ptr %25, align 8, !tbaa !20
  %27 = tail call i32 @strcasecmp(ptr noundef nonnull readonly %15, ptr noundef %26) #16
  %28 = icmp slt i32 %27, 0
  br i1 %28, label %32, label %29

29:                                               ; preds = %.lr.ph.i.i
  %.not.i.i = icmp eq i32 %27, 0
  br i1 %.not.i.i, label %bsearch.exit.i.split.loop.exit31, label %30

30:                                               ; preds = %29
  %31 = add nuw i64 %23, 1
  br label %32

32:                                               ; preds = %30, %.lr.ph.i.i
  %.118.i.i = phi i64 [ %.01720.i.i, %30 ], [ %23, %.lr.ph.i.i ]
  %.1.i.i = phi i64 [ %31, %30 ], [ %.01621.i.i, %.lr.ph.i.i ]
  %33 = icmp ult i64 %.1.i.i, %.118.i.i
  br i1 %33, label %.lr.ph.i.i, label %bsearch.exit.i, !llvm.loop !22

bsearch.exit.i.split.loop.exit31:                 ; preds = %29
  %34 = getelementptr inbounds nuw i8, ptr @postscript_alias, i64 %24
  br label %bsearch.exit.i

bsearch.exit.i:                                   ; preds = %32, %bsearch.exit.i.split.loop.exit31
  %.0.i.i = phi ptr [ %34, %bsearch.exit.i.split.loop.exit31 ], [ null, %32 ]
  store ptr %.0.i.i, ptr @translate_postscript_fontname.result, align 8, !tbaa !17
  br label %translate_postscript_fontname.exit

translate_postscript_fontname.exit:               ; preds = %._crit_edge.i, %bsearch.exit.i
  %35 = phi ptr [ %.pre.i, %._crit_edge.i ], [ %.0.i.i, %bsearch.exit.i ]
  store ptr %35, ptr %6, align 8, !tbaa !12
  br label %36

36:                                               ; preds = %translate_postscript_fontname.exit, %2
  %37 = load i8, ptr @Verbose, align 1, !tbaa !24
  %.not15 = icmp eq i8 %37, 0
  br i1 %.not15, label %.thread, label %38

38:                                               ; preds = %36
  %39 = load ptr, ptr %5, align 8, !tbaa !16
  %40 = tail call zeroext i1 @emit_once(ptr noundef %39) #15
  %spec.select = select i1 %40, ptr %3, ptr null
  %41 = call zeroext i1 @gvtextlayout(ptr noundef %0, ptr noundef %1, ptr noundef %spec.select) #15
  br i1 %41, label %estimate_textspan_size.exit, label %43

.thread:                                          ; preds = %36
  %42 = tail call zeroext i1 @gvtextlayout(ptr noundef %0, ptr noundef %1, ptr noundef null) #15
  br i1 %42, label %estimate_textspan_size.exit.thread25, label %43

43:                                               ; preds = %.thread, %38
  %.024 = phi ptr [ null, %.thread ], [ %spec.select, %38 ]
  %44 = load ptr, ptr %4, align 8, !tbaa !8
  %45 = getelementptr inbounds nuw i8, ptr %44, i64 32
  %46 = load i32, ptr %45, align 8
  %47 = and i32 %46, 1
  %48 = icmp ne i32 %47, 0
  %49 = and i32 %46, 2
  %50 = icmp ne i32 %49, 0
  %51 = getelementptr inbounds nuw i8, ptr %44, i64 24
  %52 = load double, ptr %51, align 8, !tbaa !25
  %53 = getelementptr inbounds nuw i8, ptr %1, i64 48
  store double 0.000000e+00, ptr %53, align 8, !tbaa !26
  %54 = fmul double %52, 1.200000e+00
  %55 = getelementptr inbounds nuw i8, ptr %1, i64 56
  store double %54, ptr %55, align 8, !tbaa !27
  %56 = getelementptr inbounds nuw i8, ptr %1, i64 32
  store double 0.000000e+00, ptr %56, align 8, !tbaa !28
  %57 = fmul double %52, 1.000000e-01
  %58 = getelementptr inbounds nuw i8, ptr %1, i64 40
  store double %57, ptr %58, align 8, !tbaa !29
  %59 = getelementptr inbounds nuw i8, ptr %1, i64 16
  call void @llvm.memset.p0.i64(ptr noundef nonnull align 8 dereferenceable(16) %59, i8 0, i64 16, i1 false)
  %60 = load ptr, ptr %44, align 8, !tbaa !16
  %61 = load ptr, ptr %1, align 8, !tbaa !30
  %62 = call double @estimate_text_width_1pt(ptr noundef %60, ptr noundef %61, i1 noundef zeroext %48, i1 noundef zeroext %50) #15
  %63 = fmul double %52, %62
  store double %63, ptr %53, align 8, !tbaa !26
  %.not.i18 = icmp eq ptr %.024, null
  br i1 %.not.i18, label %estimate_textspan_size.exit.thread25, label %estimate_textspan_size.exit.thread20

estimate_textspan_size.exit.thread20:             ; preds = %43
  store ptr @.str.59, ptr %.024, align 8, !tbaa !3
  br label %64

estimate_textspan_size.exit:                      ; preds = %38
  br i1 %40, label %64, label %estimate_textspan_size.exit.thread25

64:                                               ; preds = %estimate_textspan_size.exit.thread20, %estimate_textspan_size.exit
  %65 = load ptr, ptr %3, align 8, !tbaa !3
  %.not17 = icmp eq ptr %65, null
  %66 = load ptr, ptr @stderr, align 8, !tbaa !18
  %67 = load ptr, ptr %5, align 8, !tbaa !16
  br i1 %.not17, label %70, label %68

68:                                               ; preds = %64
  %69 = call i32 (ptr, ptr, ...) @fprintf(ptr noundef %66, ptr noundef nonnull @.str, ptr noundef %67, ptr noundef nonnull %65) #17
  br label %estimate_textspan_size.exit.thread25

70:                                               ; preds = %64
  %71 = call i32 (ptr, ptr, ...) @fprintf(ptr noundef %66, ptr noundef nonnull @.str.1, ptr noundef %67) #17
  br label %estimate_textspan_size.exit.thread25

estimate_textspan_size.exit.thread25:             ; preds = %43, %.thread, %68, %70, %estimate_textspan_size.exit
  %72 = getelementptr inbounds nuw i8, ptr %1, i64 48
  %.sroa.0.0.copyload = load double, ptr %72, align 8, !tbaa !31
  %.sroa.2.0..sroa_idx = getelementptr inbounds nuw i8, ptr %1, i64 56
  %.sroa.2.0.copyload = load double, ptr %.sroa.2.0..sroa_idx, align 8, !tbaa !31
  call void @llvm.lifetime.end.p0(i64 8, ptr nonnull %3) #15
  %.fca.0.insert = insertvalue { double, double } poison, double %.sroa.0.0.copyload, 0
  %.fca.1.insert = insertvalue { double, double } %.fca.0.insert, double %.sroa.2.0.copyload, 1
  ret { double, double } %.fca.1.insert
}